target datalayout = "e-m:e-p270:32:32-p271:32:32-p272:64:64-i64:64-i128:128-f80:128-n8:16:32:64-S128"
target triple = "x86_64-pc-linux-gnu"

@hf_smb2_lease_key = internal global i32 0, align 4
@hf_smb2_lease_state = internal global i32 0, align 4
@hf_smb2_lease_flags = internal global i32 0, align 4
@hf_smb2_lease_duration = internal global i32 0, align 4
@hf_smb2_oplock = internal global i32 0, align 4
@hf_smb2_buffer_code = internal global i32 0, align 4
@hf_smb2_buffer_code_len = internal global i32 0, align 4
@hf_smb2_buffer_code_flags_dyn = internal global i32 0, align 4
@hf_smb2_reserved = internal global i32 0, align 4
@ett_smb2_lease_state = internal global i32 0, align 4
@ett_smb2_lease_flags = internal global i32 0, align 4
@ett_smb2_buffercode = internal global i32 0, align 4
@lease_state_fields = internal constant [4 x ptr] [ptr @hf_smb2_lease_state_read_caching, ptr @hf_smb2_lease_state_handle_caching, ptr @hf_smb2_lease_state_write_caching, ptr null], align 16
@lease_flags_fields = internal constant [4 x ptr] [ptr @hf_smb2_lease_flags_break_ack_required, ptr @hf_smb2_lease_flags_break_in_progress, ptr @hf_smb2_lease_flags_parent_lease_key_set, ptr null], align 16

; Function Attrs: null_pointer_is_valid sspstrong uwtable
define internal i32 @dissect_smb2_oplock(ptr noundef %0, ptr noundef %1, i32 noundef %2) #0 {
  %4 = alloca ptr, align 8
  %5 = alloca ptr, align 8
  %6 = alloca i32, align 4
  store ptr %0, ptr %4, align 8
  store ptr %1, ptr %5, align 8
  store i32 %2, ptr %6, align 4
  %7 = load ptr, ptr %4, align 8
  %8 = load i32, ptr @hf_smb2_oplock, align 4
  %9 = load ptr, ptr %5, align 8
  %10 = load i32, ptr %6, align 4
  %11 = call ptr @proto_tree_add_item(ptr noundef %7, i32 noundef %8, ptr noundef %9, i32 noundef %10, i32 noundef 1, i32 noundef -2147483648)
  %12 = load i32, ptr %6, align 4
  %13 = add i32 %12, 1
  store i32 %13, ptr %6, align 4
  %14 = load i32, ptr %6, align 4
  ret i32 %14
}

; Function Attrs: null_pointer_is_valid sspstrong uwtable
define internal i32 @dissect_smb2_buffercode(ptr noundef %0, ptr noundef %1, i32 noundef %2, ptr noundef %3) #0 {
  %5 = alloca ptr, align 8
  %6 = alloca ptr, align 8
  %7 = alloca i32, align 4
  %8 = alloca ptr, align 8
  %9 = alloca ptr, align 8
  %10 = alloca ptr, align 8
  %11 = alloca i16, align 2
  store ptr %0, ptr %5, align 8
  store ptr %1, ptr %6, align 8
  store i32 %2, ptr %7, align 4
  store ptr %3, ptr %8, align 8
  call void @llvm.lifetime.start.p0(i64 8, ptr %9) #13
  call void @llvm.lifetime.start.p0(i64 8, ptr %10) #13
  store ptr null, ptr %10, align 8
  call void @llvm.lifetime.start.p0(i64 2, ptr %11) #13
  %12 = load ptr, ptr %6, align 8
  %13 = load i32, ptr %7, align 4
  %14 = call zeroext i16 @tvb_get_letohs(ptr noundef %12, i32 noundef %13)
  store i16 %14, ptr %11, align 2
  %15 = load ptr, ptr %5, align 8
  %16 = load i32, ptr @hf_smb2_buffer_code, align 4
  %17 = load ptr, ptr %6, align 8
  %18 = load i32, ptr %7, align 4
  %19 = load i16, ptr %11, align 2
  %20 = zext i16 %19 to i32
  %21 = call ptr @proto_tree_add_uint(ptr noundef %15, i32 noundef %16, ptr noundef %17, i32 noundef %18, i32 noundef 2, i32 noundef %20)
  store ptr %21, ptr %10, align 8
  %22 = load ptr, ptr %10, align 8
  %23 = load i32, ptr @ett_smb2_buffercode, align 4
  %24 = call ptr @proto_item_add_subtree(ptr noundef %22, i32 noundef %23)
  store ptr %24, ptr %9, align 8
  %25 = load ptr, ptr %9, align 8
  %26 = load i32, ptr @hf_smb2_buffer_code_len, align 4
  %27 = load ptr, ptr %6, align 8
  %28 = load i32, ptr %7, align 4
  %29 = call ptr @proto_tree_add_item(ptr noundef %25, i32 noundef %26, ptr noundef %27, i32 noundef %28, i32 noundef 2, i32 noundef -2147483648)
  %30 = load ptr, ptr %9, align 8
  %31 = load i32, ptr @hf_smb2_buffer_code_flags_dyn, align 4
  %32 = load ptr, ptr %6, align 8
  %33 = load i32, ptr %7, align 4
  %34 = call ptr @proto_tree_add_item(ptr noundef %30, i32 noundef %31, ptr noundef %32, i32 noundef %33, i32 noundef 2, i32 noundef -2147483648)
  %35 = load i32, ptr %7, align 4
  %36 = add i32 %35, 2
  store i32 %36, ptr %7, align 4
  %37 = load ptr, ptr %8, align 8
  %38 = icmp ne ptr %37, null
  br i1 %38, label %39, label %42

39:                                               ; preds = %4
  %40 = load i16, ptr %11, align 2
  %41 = load ptr, ptr %8, align 8
  store i16 %40, ptr %41, align 2
  br label %42

42:                                               ; preds = %39, %4
  %43 = load i32, ptr %7, align 4
  call void @llvm.lifetime.end.p0(i64 2, ptr %11) #13
  call void @llvm.lifetime.end.p0(i64 8, ptr %10) #13
  call void @llvm.lifetime.end.p0(i64 8, ptr %9) #13
  ret i32 %43
}

; Function Attrs: null_pointer_is_valid sspstrong uwtable
define internal i32 @dissect_smb2_break_request(ptr noundef %0, ptr noundef %1, ptr noundef %2, i32 noundef %3, ptr noundef %4) #0 {
  %6 = alloca i32, align 4
  %7 = alloca ptr, align 8
  %8 = alloca ptr, align 8
  %9 = alloca ptr, align 8
  %10 = alloca i32, align 4
  %11 = alloca ptr, align 8
  %12 = alloca i16, align 2
  %13 = alloca i32, align 4
  store ptr %0, ptr %7, align 8
  store ptr %1, ptr %8, align 8
  store ptr %2, ptr %9, align 8
  store i32 %3, ptr %10, align 4
  store ptr %4, ptr %11, align 8
  call void @llvm.lifetime.start.p0(i64 2, ptr %12) #13
  %14 = load ptr, ptr %7, align 8
  %15 = load i32, ptr %10, align 4
  %16 = call zeroext i16 @tvb_get_letohs(ptr noundef %14, i32 noundef %15)
  store i16 %16, ptr %12, align 2
  %17 = load ptr, ptr %9, align 8
  %18 = load ptr, ptr %7, align 8
  %19 = load i32, ptr %10, align 4
  %20 = call i32 @dissect_smb2_buffercode(ptr noundef %17, ptr noundef %18, i32 noundef %19, ptr noundef null)
  store i32 %20, ptr %10, align 4
  %21 = load i16, ptr %12, align 2
  %22 = zext i16 %21 to i32
  %23 = icmp eq i32 %22, 24
  br i1 %23, label %24, label %50

24:                                               ; preds = %5
  %25 = load ptr, ptr %9, align 8
  %26 = load ptr, ptr %7, align 8
  %27 = load i32, ptr %10, align 4
  %28 = call i32 @dissect_smb2_oplock(ptr noundef %25, ptr noundef %26, i32 noundef %27)
  store i32 %28, ptr %10, align 4
  %29 = load ptr, ptr %9, align 8
  %30 = load i32, ptr @hf_smb2_reserved, align 4
  %31 = load ptr, ptr %7, align 8
  %32 = load i32, ptr %10, align 4
  %33 = call ptr @proto_tree_add_item(ptr noundef %29, i32 noundef %30, ptr noundef %31, i32 noundef %32, i32 noundef 1, i32 noundef 0)
  %34 = load i32, ptr %10, align 4
  %35 = add i32 %34, 1
  store i32 %35, ptr %10, align 4
  %36 = load ptr, ptr %9, align 8
  %37 = load i32, ptr @hf_smb2_reserved, align 4
  %38 = load ptr, ptr %7, align 8
  %39 = load i32, ptr %10, align 4
  %40 = call ptr @proto_tree_add_item(ptr noundef %36, i32 noundef %37, ptr noundef %38, i32 noundef %39, i32 noundef 4, i32 noundef 0)
  %41 = load i32, ptr %10, align 4
  %42 = add i32 %41, 4
  store i32 %42, ptr %10, align 4
  %43 = load ptr, ptr %7, align 8
  %44 = load ptr, ptr %8, align 8
  %45 = load ptr, ptr %9, align 8
  %46 = load i32, ptr %10, align 4
  %47 = load ptr, ptr %11, align 8
  %48 = call i32 @dissect_smb2_fid(ptr noundef %43, ptr noundef %44, ptr noundef %45, i32 noundef %46, ptr noundef %47, i32 noundef 2)
  store i32 %48, ptr %10, align 4
  %49 = load i32, ptr %10, align 4
  store i32 %49, ptr %6, align 4
  store i32 1, ptr %13, align 4
  br label %95

50:                                               ; preds = %5
  %51 = load i16, ptr %12, align 2
  %52 = zext i16 %51 to i32
  %53 = icmp eq i32 %52, 36
  br i1 %53, label %54, label %93

54:                                               ; preds = %50
  %55 = load ptr, ptr %9, align 8
  %56 = load i32, ptr @hf_smb2_reserved, align 4
  %57 = load ptr, ptr %7, align 8
  %58 = load i32, ptr %10, align 4
  %59 = call ptr @proto_tree_add_item(ptr noundef %55, i32 noundef %56, ptr noundef %57, i32 noundef %58, i32 noundef 2, i32 noundef 0)
  %60 = load i32, ptr %10, align 4
  %61 = add i32 %60, 2
  store i32 %61, ptr %10, align 4
  %62 = load ptr, ptr %9, align 8
  %63 = load ptr, ptr %7, align 8
  %64 = load i32, ptr %10, align 4
  %65 = load i32, ptr @hf_smb2_lease_flags, align 4
  %66 = load i32, ptr @ett_smb2_lease_flags, align 4
  %67 = call ptr @proto_tree_add_bitmask(ptr noundef %62, ptr noundef %63, i32 noundef %64, i32 noundef %65, i32 noundef %66, ptr noundef @lease_flags_fields, i32 noundef -2147483648)
  %68 = load i32, ptr %10, align 4
  %69 = add i32 %68, 4
  store i32 %69, ptr %10, align 4
  %70 = load ptr, ptr %9, align 8
  %71 = load i32, ptr @hf_smb2_lease_key, align 4
  %72 = load ptr, ptr %7, align 8
  %73 = load i32, ptr %10, align 4
  %74 = call ptr @proto_tree_add_item(ptr noundef %70, i32 noundef %71, ptr noundef %72, i32 noundef %73, i32 noundef 16, i32 noundef -2147483648)
  %75 = load i32, ptr %10, align 4
  %76 = add i32 %75, 16
  store i32 %76, ptr %10, align 4
  %77 = load ptr, ptr %9, align 8
  %78 = load ptr, ptr %7, align 8
  %79 = load i32, ptr %10, align 4
  %80 = load i32, ptr @hf_smb2_lease_state, align 4
  %81 = load i32, ptr @ett_smb2_lease_state, align 4
  %82 = call ptr @proto_tree_add_bitmask(ptr noundef %77, ptr noundef %78, i32 noundef %79, i32 noundef %80, i32 noundef %81, ptr noundef @lease_state_fields, i32 noundef -2147483648)
  %83 = load i32, ptr %10, align 4
  %84 = add i32 %83, 4
  store i32 %84, ptr %10, align 4
  %85 = load ptr, ptr %9, align 8
  %86 = load i32, ptr @hf_smb2_lease_duration, align 4
  %87 = load ptr, ptr %7, align 8
  %88 = load i32, ptr %10, align 4
  %89 = call ptr @proto_tree_add_item(ptr noundef %85, i32 noundef %86, ptr noundef %87, i32 noundef %88, i32 noundef 8, i32 noundef -2147483648)
  %90 = load i32, ptr %10, align 4
  %91 = add i32 %90, 8
  store i32 %91, ptr %10, align 4
  %92 = load i32, ptr %10, align 4
  store i32 %92, ptr %6, align 4
  store i32 1, ptr %13, align 4
  br label %95

93:                                               ; preds = %50
  %94 = load i32, ptr %10, align 4
  store i32 %94, ptr %6, align 4
  store i32 1, ptr %13, align 4
  br label %95

95:                                               ; preds = %93, %54, %24
  call void @llvm.lifetime.end.p0(i64 2, ptr %12) #13
  %96 = load i32, ptr %6, align 4
  ret i32 %96
}