; Function Attrs: null_pointer_is_valid sspstrong uwtable
define internal i32 @dissect_smb2_break_request(ptr noundef %0, ptr noundef %1, ptr noundef %2, i32 noundef %3, ptr noundef captures(none) %4) #0 {
  %6 = tail call zeroext i16 @tvb_get_letohs(ptr noundef %0, i32 noundef %3)
  %7 = tail call zeroext i16 @tvb_get_letohs(ptr noundef %0, i32 noundef %3)
  %8 = load i32, ptr @hf_smb2_buffer_code, align 4
  %9 = zext i16 %7 to i32
  %10 = tail call ptr @proto_tree_add_uint(ptr noundef %2, i32 noundef %8, ptr noundef %0, i32 noundef %3, i32 noundef 2, i32 noundef %9)
  %11 = load i32, ptr @ett_smb2_buffercode, align 4
  %12 = tail call ptr @proto_item_add_subtree(ptr noundef %10, i32 noundef %11)
  %13 = load i32, ptr @hf_smb2_buffer_code_len, align 4
  %14 = tail call ptr @proto_tree_add_item(ptr noundef %12, i32 noundef %13, ptr noundef %0, i32 noundef %3, i32 noundef 2, i32 noundef -2147483648)
  %15 = load i32, ptr @hf_smb2_buffer_code_flags_dyn, align 4
  %16 = tail call ptr @proto_tree_add_item(ptr noundef %12, i32 noundef %15, ptr noundef %0, i32 noundef %3, i32 noundef 2, i32 noundef -2147483648)
  %17 = add i32 %3, 2
  switch i16 %6, label %47 [
    i16 24, label %18
    i16 36, label %29
  ]

18:                                               ; preds = %5
  %19 = load i32, ptr @hf_smb2_oplock, align 4
  %20 = tail call ptr @proto_tree_add_item(ptr noundef %2, i32 noundef %19, ptr noundef %0, i32 noundef %17, i32 noundef 1, i32 noundef -2147483648)
  %21 = add i32 %3, 3
  %22 = load i32, ptr @hf_smb2_reserved, align 4
  %23 = tail call ptr @proto_tree_add_item(ptr noundef %2, i32 noundef %22, ptr noundef %0, i32 noundef %21, i32 noundef 1, i32 noundef 0)
  %24 = add i32 %3, 4
  %25 = load i32, ptr @hf_smb2_reserved, align 4
  %26 = tail call ptr @proto_tree_add_item(ptr noundef %2, i32 noundef %25, ptr noundef %0, i32 noundef %24, i32 noundef 4, i32 noundef 0)
  %27 = add i32 %3, 8
  %28 = tail call fastcc i32 @dissect_smb2_fid(ptr noundef %0, ptr noundef %1, ptr noundef %2, i32 noundef %27, ptr noundef %4, i32 noundef 2)
  br label %47

29:                                               ; preds = %5
  %30 = load i32, ptr @hf_smb2_reserved, align 4
  %31 = tail call ptr @proto_tree_add_item(ptr noundef %2, i32 noundef %30, ptr noundef %0, i32 noundef %17, i32 noundef 2, i32 noundef 0)
  %32 = add i32 %3, 4
  %33 = load i32, ptr @hf_smb2_lease_flags, align 4
  %34 = load i32, ptr @ett_smb2_lease_flags, align 4
  %35 = tail call ptr @proto_tree_add_bitmask(ptr noundef %2, ptr noundef %0, i32 noundef %32, i32 noundef %33, i32 noundef %34, ptr noundef nonnull @lease_flags_fields, i32 noundef -2147483648)
  %36 = add i32 %3, 8
  %37 = load i32, ptr @hf_smb2_lease_key, align 4
  %38 = tail call ptr @proto_tree_add_item(ptr noundef %2, i32 noundef %37, ptr noundef %0, i32 noundef %36, i32 noundef 16, i32 noundef -2147483648)
  %39 = add i32 %3, 24
  %40 = load i32, ptr @hf_smb2_lease_state, align 4
  %41 = load i32, ptr @ett_smb2_lease_state, align 4
  %42 = tail call ptr @proto_tree_add_bitmask(ptr noundef %2, ptr noundef %0, i32 noundef %39, i32 noundef %40, i32 noundef %41, ptr noundef nonnull @lease_state_fields, i32 noundef -2147483648)
  %43 = add i32 %3, 28
  %44 = load i32, ptr @hf_smb2_lease_duration, align 4
  %45 = tail call ptr @proto_tree_add_item(ptr noundef %2, i32 noundef %44, ptr noundef %0, i32 noundef %43, i32 noundef 8, i32 noundef -2147483648)
  %46 = add i32 %3, 36
  br label %47

47:                                               ; preds = %5, %29, %18
  %.0 = phi i32 [ %28, %18 ], [ %46, %29 ], [ %17, %5 ]
  ret i32 %.0
}